; Function Attrs: nounwind uwtable
define internal fastcc noundef ptr @_readCommonTableExpr() unnamed_addr #0 {
  %1 = alloca i32, align 4
  %2 = tail call noundef ptr @palloc0(i64 noundef 104) #10
  store i32 115, ptr %2, align 4
  call void @llvm.lifetime.start.p0(i64 4, ptr nonnull %1) #10
  %3 = call ptr @pg_strtok(ptr noundef nonnull %1) #10
  %4 = call ptr @pg_strtok(ptr noundef nonnull %1) #10
  %5 = load i32, ptr %1, align 4
  switch i32 %5, label %15 [
    i32 0, label %nullable_string.exit
    i32 2, label %6
  ]

6:                                                ; preds = %0
  %7 = load i8, ptr %4, align 1
  %8 = icmp eq i8 %7, 34
  br i1 %8, label %9, label %15

9:                                                ; preds = %6
  %10 = getelementptr inbounds nuw i8, ptr %4, i64 1
  %11 = load i8, ptr %10, align 1
  %12 = icmp eq i8 %11, 34
  br i1 %12, label %13, label %15

13:                                               ; preds = %9
  %14 = call ptr @pstrdup(ptr noundef nonnull @.str.326) #10
  br label %nullable_string.exit

15:                                               ; preds = %9, %6, %0
  %16 = call ptr @debackslash(ptr noundef %4, i32 noundef %5) #10
  br label %nullable_string.exit

nullable_string.exit:                             ; preds = %0, %13, %15
  %.0.i = phi ptr [ %14, %13 ], [ %16, %15 ], [ null, %0 ]
  %17 = getelementptr inbounds nuw i8, ptr %2, i64 8
  store ptr %.0.i, ptr %17, align 8
  %18 = call ptr @pg_strtok(ptr noundef nonnull %1) #10
  %19 = call ptr @nodeRead(ptr noundef null, i32 noundef 0) #10
  %20 = getelementptr inbounds nuw i8, ptr %2, i64 16
  store ptr %19, ptr %20, align 8
  %21 = call ptr @pg_strtok(ptr noundef nonnull %1) #10
  %22 = call ptr @pg_strtok(ptr noundef nonnull %1) #10
  %23 = call i64 @strtol(ptr noundef nonnull captures(none) %22, ptr noundef null, i32 noundef 10) #10
  %24 = trunc i64 %23 to i32
  %25 = getelementptr inbounds nuw i8, ptr %2, i64 24
  store i32 %24, ptr %25, align 8
  %26 = call ptr @pg_strtok(ptr noundef nonnull %1) #10
  %27 = call ptr @nodeRead(ptr noundef null, i32 noundef 0) #10
  %28 = getelementptr inbounds nuw i8, ptr %2, i64 32
  store ptr %27, ptr %28, align 8
  %29 = call ptr @pg_strtok(ptr noundef nonnull %1) #10
  %30 = call ptr @nodeRead(ptr noundef null, i32 noundef 0) #10
  %31 = getelementptr inbounds nuw i8, ptr %2, i64 40
  store ptr %30, ptr %31, align 8
  %32 = call ptr @pg_strtok(ptr noundef nonnull %1) #10
  %33 = call ptr @nodeRead(ptr noundef null, i32 noundef 0) #10
  %34 = getelementptr inbounds nuw i8, ptr %2, i64 48
  store ptr %33, ptr %34, align 8
  %35 = call ptr @pg_strtok(ptr noundef nonnull %1) #10
  %36 = call ptr @pg_strtok(ptr noundef nonnull %1) #10
  %37 = getelementptr inbounds nuw i8, ptr %2, i64 56
  store i32 -1, ptr %37, align 8
  %38 = call ptr @pg_strtok(ptr noundef nonnull %1) #10
  %39 = call ptr @pg_strtok(ptr noundef nonnull %1) #10
  %40 = load i8, ptr %39, align 1
  %41 = icmp eq i8 %40, 116
  %42 = getelementptr inbounds nuw i8, ptr %2, i64 60
  %43 = zext i1 %41 to i8
  store i8 %43, ptr %42, align 4
  %44 = call ptr @pg_strtok(ptr noundef nonnull %1) #10
  %45 = call ptr @pg_strtok(ptr noundef nonnull %1) #10
  %46 = call i64 @strtol(ptr noundef nonnull captures(none) %45, ptr noundef null, i32 noundef 10) #10
  %47 = trunc i64 %46 to i32
  %48 = getelementptr inbounds nuw i8, ptr %2, i64 64
  store i32 %47, ptr %48, align 8
  %49 = call ptr @pg_strtok(ptr noundef nonnull %1) #10
  %50 = call ptr @nodeRead(ptr noundef null, i32 noundef 0) #10
  %51 = getelementptr inbounds nuw i8, ptr %2, i64 72
  store ptr %50, ptr %51, align 8
  %52 = call ptr @pg_strtok(ptr noundef nonnull %1) #10
  %53 = call ptr @nodeRead(ptr noundef null, i32 noundef 0) #10
  %54 = getelementptr inbounds nuw i8, ptr %2, i64 80
  store ptr %53, ptr %54, align 8
  %55 = call ptr @pg_strtok(ptr noundef nonnull %1) #10
  %56 = call ptr @nodeRead(ptr noundef null, i32 noundef 0) #10
  %57 = getelementptr inbounds nuw i8, ptr %2, i64 88
  store ptr %56, ptr %57, align 8
  %58 = call ptr @pg_strtok(ptr noundef nonnull %1) #10
  %59 = call ptr @nodeRead(ptr noundef null, i32 noundef 0) #10
  %60 = getelementptr inbounds nuw i8, ptr %2, i64 96
  store ptr %59, ptr %60, align 8
  call void @llvm.lifetime.end.p0(i64 4, ptr nonnull %1) #10
  ret ptr %2
}